; Function Attrs: mustprogress nounwind uwtable
define hidden void @_ZN20MetadataTypeConstant9serializeER19JfrCheckpointWriter(ptr nocapture nonnull readnone align 8 %0, ptr noundef nonnull align 8 dereferenceable(73) %1) unnamed_addr #0 align 2 {
.critedge:
  tail call void @_ZN19JfrCheckpointWriter11write_countEj(ptr noundef nonnull align 8 dereferenceable(73) %1, i32 noundef 2) #8
  tail call void @_ZN19JfrCheckpointWriter9write_keyEm(ptr noundef nonnull align 8 dereferenceable(73) %1, i64 noundef 0) #8
  %2 = tail call noundef ptr @_ZN9Metaspace18metadata_type_nameENS_12MetadataTypeE(i32 noundef 0) #8
  tail call void @_ZN10WriterHostI11EncoderHostI20BigEndianEncoderImplS1_ES0_I20Varint128EncoderImplS1_E30AcquireReleaseMemoryWriterHostI7AdapterI18JfrCheckpointFlushE8StackObjEE10write_utf8EPKc(ptr noundef nonnull align 8 dereferenceable(41) %1, ptr noundef %2)
  tail call void @_ZN19JfrCheckpointWriter9write_keyEm(ptr noundef nonnull align 8 dereferenceable(73) %1, i64 noundef 1) #8
  %3 = tail call noundef ptr @_ZN9Metaspace18metadata_type_nameENS_12MetadataTypeE(i32 noundef 1) #8
  tail call void @_ZN10WriterHostI11EncoderHostI20BigEndianEncoderImplS1_ES0_I20Varint128EncoderImplS1_E30AcquireReleaseMemoryWriterHostI7AdapterI18JfrCheckpointFlushE8StackObjEE10write_utf8EPKc(ptr noundef nonnull align 8 dereferenceable(41) %1, ptr noundef %3)
  ret void
}